target datalayout = "e-m:e-p270:32:32-p271:32:32-p272:64:64-i64:64-i128:128-f80:128-n8:16:32:64-S128"
target triple = "x86_64-pc-linux-gnu"

%struct.ccan_list_node = type { ptr, ptr }
%struct.waitpid_state = type { %struct.ccan_list_node, ptr, ptr, i32, i32, i32, i32, i32 }

; Function Attrs: nounwind sspstrong uwtable
define internal i32 @do_waitpid(i32 noundef %0, ptr noundef %1, i32 noundef %2) #0 {
  %4 = alloca i32, align 4
  %5 = alloca ptr, align 8
  %6 = alloca i32, align 4
  store i32 %0, ptr %4, align 4, !tbaa !34
  store ptr %1, ptr %5, align 8, !tbaa !60
  store i32 %2, ptr %6, align 4, !tbaa !34
  %7 = load i32, ptr %4, align 4, !tbaa !34
  %8 = load ptr, ptr %5, align 8, !tbaa !60
  %9 = load i32, ptr %6, align 4, !tbaa !34
  %10 = call i32 @waitpid(i32 noundef %7, ptr noundef %8, i32 noundef %9)
  ret i32 %10
}

; Function Attrs: nounwind sspstrong uwtable
define internal ptr @waitpid_blocking_no_SIGCHLD(ptr noundef %0) #0 {
  %2 = alloca ptr, align 8
  %3 = alloca ptr, align 8
  store ptr %0, ptr %2, align 8, !tbaa !62
  call void @llvm.lifetime.start.p0(i64 8, ptr %3) #27
  %4 = load ptr, ptr %2, align 8, !tbaa !62
  store ptr %4, ptr %3, align 8, !tbaa !53
  %5 = load ptr, ptr %3, align 8, !tbaa !53
  %6 = getelementptr inbounds nuw %struct.waitpid_state, ptr %5, i32 0, i32 4
  %7 = load i32, ptr %6, align 4, !tbaa !55
  %8 = load ptr, ptr %3, align 8, !tbaa !53
  %9 = getelementptr inbounds nuw %struct.waitpid_state, ptr %8, i32 0, i32 5
  %10 = load ptr, ptr %3, align 8, !tbaa !53
  %11 = getelementptr inbounds nuw %struct.waitpid_state, ptr %10, i32 0, i32 6
  %12 = load i32, ptr %11, align 4, !tbaa !56
  %13 = call i32 @do_waitpid(i32 noundef %7, ptr noundef %9, i32 noundef %12)
  %14 = load ptr, ptr %3, align 8, !tbaa !53
  %15 = getelementptr inbounds nuw %struct.waitpid_state, ptr %14, i32 0, i32 3
  store i32 %13, ptr %15, align 8, !tbaa !50
  call void @llvm.lifetime.end.p0(i64 8, ptr %3) #27
  ret ptr null
}