; Function Attrs: nounwind sspstrong uwtable
define internal noalias noundef ptr @waitpid_blocking_no_SIGCHLD(ptr noundef %0) #1 {
  %2 = getelementptr inbounds nuw i8, ptr %0, i64 36
  %3 = load i32, ptr %2, align 4, !tbaa !55
  %4 = getelementptr inbounds nuw i8, ptr %0, i64 40
  %5 = getelementptr inbounds nuw i8, ptr %0, i64 44
  %6 = load i32, ptr %5, align 4, !tbaa !56
  %7 = tail call i32 @waitpid(i32 noundef %3, ptr noundef nonnull %4, i32 noundef %6) #27
  %8 = getelementptr inbounds nuw i8, ptr %0, i64 32
  store i32 %7, ptr %8, align 8, !tbaa !53
  ret ptr null
}